(dp0
S'cum_loss_list'
p1
(lp2
cnumpy.core.multiarray
scalar
p3
(cnumpy
dtype
p4
(S'f8'
p5
I0
I1
tp6
Rp7
(I3
S'<'
p8
NNNI-1
I-1
I0
tp9
bS'\xbd\x03J\xdandx@'
p10
tp11
Rp12
ag3
(g7
S'h\xad\xb7%\x02Mb@'
p13
tp14
Rp15
ag3
(g7
S'\x903=\x8b\x9aiV@'
p16
tp17
Rp18
ag3
(g7
S'\xcb\xf8Z\xda2\x04R@'
p19
tp20
Rp21
ag3
(g7
S'\xf88ei\xa7:O@'
p22
tp23
Rp24
ag3
(g7
S'w\x13\xc9\x8a\xc6\tM@'
p25
tp26
Rp27
ag3
(g7
S'#\x7f\x0c\xe9\x80\x11J@'
p28
tp29
Rp30
ag3
(g7
S'<z\rT\x91:G@'
p31
tp32
Rp33
ag3
(g7
S'Vl\x0e\x8cW3E@'
p34
tp35
Rp36
ag3
(g7
S'\xf1\x00\x87x\xc8\xc0C@'
p37
tp38
Rp39
as.