(dp0
S'cum_loss_list'
p1
(lp2
cnumpy.core.multiarray
scalar
p3
(cnumpy
dtype
p4
(S'f8'
p5
I0
I1
tp6
Rp7
(I3
S'<'
p8
NNNI-1
I-1
I0
tp9
bS'\x07u\xe1\x15\xf0\x930@'
p10
tp11
Rp12
ag3
(g7
S'\x06\xce\xef2\xf1s\x1e@'
p13
tp14
Rp15
ag3
(g7
S'\x03h9xrZ\x18@'
p16
tp17
Rp18
ag3
(g7
S'!?e\x8e\xa1\xb6\x14@'
p19
tp20
Rp21
ag3
(g7
S"\xc6'\xbc#\x97\x1a\x12@"
p22
tp23
Rp24
ag3
(g7
S'\xa2\xcbo\xce\x98(\x10@'
p25
tp26
Rp27
ag3
(g7
S'\x891e\xbe\xaa\xf5\x0c@'
p28
tp29
Rp30
ag3
(g7
S'\xf3\xa8\x88\x12\xcdQ\x0b@'
p31
tp32
Rp33
ag3
(g7
S'\xbe\x9b\xae\xfa\x15\xde\x07@'
p34
tp35
Rp36
ag3
(g7
S"'W\xda\xf7\x08\x00\x06@"
p37
tp38
Rp39
ag3
(g7
S'C\x80\x85\xe5\xbfJ\x04@'
p40
tp41
Rp42
ag3
(g7
S'V\xff\xd7<\xf0\t\x03@'
p43
tp44
Rp45
ag3
(g7
S'\xf3\xf9\xd9\r/\x98\x01@'
p46
tp47
Rp48
ag3
(g7
S'!\xec\x1a\xbaQ\x8f\x00@'
p49
tp50
Rp51
ag3
(g7
S'\xe0U\xd2\x92\x13\xe5\xfe?'
p52
tp53
Rp54
ag3
(g7
S'#\x067`\x03W\xfd?'
p55
tp56
Rp57
ag3
(g7
S'\xba\x89w\x0bO\xc9\xfb?'
p58
tp59
Rp60
ag3
(g7
S'u\x999{D=\xfa?'
p61
tp62
Rp63
ag3
(g7
S'j\xf3\xe7\x10VS\xf9?'
p64
tp65
Rp66
ag3
(g7
S'\x91E\xaa\xc2[\x92\xf8?'
p67
tp68
Rp69
ag3
(g7
S'&5\x94\xf6a\x8c\xf6?'
p70
tp71
Rp72
ag3
(g7
S'\x18\xb5\xff\x07U9\xf6?'
p73
tp74
Rp75
ag3
(g7
S'K\x18\xeb\xe4\x91o\xf5?'
p76
tp77
Rp78
ag3
(g7
S'\xe3;\xc8~\xe3\x1e\xf5?'
p79
tp80
Rp81
ag3
(g7
S"\xf5\x8c\xb5'S\xdf\xf3?"
p82
tp83
Rp84
ag3
(g7
S"\xc8'zm\xe6\x8b\xf3?"
p85
tp86
Rp87
ag3
(g7
S'Y`\xd0)\xd7l\xf3?'
p88
tp89
Rp90
ag3
(g7
S'W\x11\xb1EG\xdc\xf2?'
p91
tp92
Rp93
ag3
(g7
S'\xd7\x155\x9er\x1d\xf2?'
p94
tp95
Rp96
ag3
(g7
S'\xbf]\xb0\xb3\xfc\x03\xf2?'
p97
tp98
Rp99
ag3
(g7
S's\xfb\xc4\xa8%\x12\xf1?'
p100
tp101
Rp102
ag3
(g7
S'^\xc939v,\xf1?'
p103
tp104
Rp105
ag3
(g7
S'\x93\x197\x07Z`\xf0?'
p106
tp107
Rp108
ag3
(g7
S'\xb2#\xe3\x89\xfb^\xf0?'
p109
tp110
Rp111
ag3
(g7
S'\xf8\xc3\x91S\xd7\x06\xf0?'
p112
tp113
Rp114
ag3
(g7
S'\xad\x137\xeb\xf2\x13\xf0?'
p115
tp116
Rp117
ag3
(g7
S'q\xc4\xda\xc48\x16\xef?'
p118
tp119
Rp120
ag3
(g7
S'\xa8\x1f)n\xd7\xa6\xee?'
p121
tp122
Rp123
ag3
(g7
S'\xac\xf5\x19\xf1\xefG\xed?'
p124
tp125
Rp126
ag3
(g7
S'\x17rJKH\x05\xed?'
p127
tp128
Rp129
ag3
(g7
S'\xe2I\x94\xc8s2\xed?'
p130
tp131
Rp132
ag3
(g7
S'\x82\x16\x9f\x03Y5\xec?'
p133
tp134
Rp135
ag3
(g7
S'\xd4\xb8\x14cw\xc3\xeb?'
p136
tp137
Rp138
ag3
(g7
S"'e\xfbe0\xab\xeb?"
p139
tp140
Rp141
ag3
(g7
S'Jq\x97\rF>\xeb?'
p142
tp143
Rp144
asS'history_valid_bleu'
p145
(lp146
F0.7219626779100183
aF0.7772257348718812
aF0.793752065611891
aF0.8071575834765036
aF0.8193424517200044
aF0.8086980387620264
aF0.8049820613746768
aF0.8200140182456538
aF0.8108821411007092
aF0.8019894470204031
aF0.810177727585641
aF0.8186814878336898
aF0.811970876351249
aF0.8120113056646401
aF0.8109069009427555
aF0.8102357516935177
aF0.8090542888836254
aF0.8105791885672338
asS'history_valid_acc'
p147
(lp148
F0.58
aF0.649
aF0.658
aF0.675
aF0.693
aF0.678
aF0.671
aF0.687
aF0.667
aF0.669
aF0.671
aF0.688
aF0.68
aF0.672
aF0.667
aF0.672
aF0.674
aF0.673
asS'history_valid_perf'
p149
(lp150
F0.7219626779100183
aF0.7772257348718812
aF0.793752065611891
aF0.8071575834765036
aF0.8193424517200044
aF0.8086980387620264
aF0.8049820613746768
aF0.8200140182456538
aF0.8108821411007092
aF0.8019894470204031
aF0.810177727585641
aF0.8186814878336898
aF0.811970876351249
aF0.8120113056646401
aF0.8109069009427555
aF0.8102357516935177
aF0.8090542888836254
as.